; Function Attrs: mustprogress nofree norecurse nosync nounwind willreturn memory(read, inaccessiblemem: none) uwtable
define hidden noundef i32 @_ZNK4cvc58internal6theory11quantifiers15SygusEnumerator9TermCache15getIndexForSizeEj(ptr noundef nonnull readonly align 8 dereferenceable(317) %this, i32 noundef %s) local_unnamed_addr #7 align 2 {
entry:
  %_M_parent.i.i.i = getelementptr inbounds i8, ptr %this, i64 280
  %0 = load ptr, ptr %_M_parent.i.i.i, align 8
  %add.ptr.i.i.i = getelementptr inbounds i8, ptr %this, i64 272
  %cmp.not5.i.i.i = icmp eq ptr %0, null
  br i1 %cmp.not5.i.i.i, label %_ZNKSt3mapIjjSt4lessIjESaISt4pairIKjjEEE4findERS3_.exit, label %while.body.i.i.i

while.body.i.i.i:                                 ; preds = %entry, %while.body.i.i.i
  %__x.addr.07.i.i.i = phi ptr [ %__x.addr.1.i.i.i, %while.body.i.i.i ], [ %0, %entry ]
  %__y.addr.06.i.i.i = phi ptr [ %__y.addr.1.i.i.i, %while.body.i.i.i ], [ %add.ptr.i.i.i, %entry ]
  %_M_storage.i.i.i.i.i = getelementptr inbounds i8, ptr %__x.addr.07.i.i.i, i64 32
  %1 = load i32, ptr %_M_storage.i.i.i.i.i, align 4
  %cmp.i.i.i.i = icmp ult i32 %1, %s
  %__y.addr.1.i.i.i = select i1 %cmp.i.i.i.i, ptr %__y.addr.06.i.i.i, ptr %__x.addr.07.i.i.i
  %__x.addr.1.in.v.i.i.i = select i1 %cmp.i.i.i.i, i64 24, i64 16
  %__x.addr.1.in.i.i.i = getelementptr inbounds i8, ptr %__x.addr.07.i.i.i, i64 %__x.addr.1.in.v.i.i.i
  %__x.addr.1.i.i.i = load ptr, ptr %__x.addr.1.in.i.i.i, align 8
  %cmp.not.i.i.i = icmp eq ptr %__x.addr.1.i.i.i, null
  br i1 %cmp.not.i.i.i, label %_ZNKSt8_Rb_treeIjSt4pairIKjjESt10_Select1stIS2_ESt4lessIjESaIS2_EE14_M_lower_boundEPKSt13_Rb_tree_nodeIS2_EPKSt18_Rb_tree_node_baseRS1_.exit.i.i, label %while.body.i.i.i, !llvm.loop !36

_ZNKSt8_Rb_treeIjSt4pairIKjjESt10_Select1stIS2_ESt4lessIjESaIS2_EE14_M_lower_boundEPKSt13_Rb_tree_nodeIS2_EPKSt18_Rb_tree_node_baseRS1_.exit.i.i: ; preds = %while.body.i.i.i
  %cmp.i.i.i = icmp eq ptr %__y.addr.1.i.i.i, %add.ptr.i.i.i
  br i1 %cmp.i.i.i, label %_ZNKSt3mapIjjSt4lessIjESaISt4pairIKjjEEE4findERS3_.exit, label %lor.lhs.false.i.i

lor.lhs.false.i.i:                                ; preds = %_ZNKSt8_Rb_treeIjSt4pairIKjjESt10_Select1stIS2_ESt4lessIjESaIS2_EE14_M_lower_boundEPKSt13_Rb_tree_nodeIS2_EPKSt18_Rb_tree_node_baseRS1_.exit.i.i
  %_M_storage.i.i.i3.i.i = getelementptr inbounds i8, ptr %__y.addr.1.i.i.i, i64 32
  %2 = load i32, ptr %_M_storage.i.i.i3.i.i, align 4
  %cmp.i4.i.i = icmp ugt i32 %2, %s
  %spec.select.i.i = select i1 %cmp.i4.i.i, ptr %add.ptr.i.i.i, ptr %__y.addr.1.i.i.i
  br label %_ZNKSt3mapIjjSt4lessIjESaISt4pairIKjjEEE4findERS3_.exit

_ZNKSt3mapIjjSt4lessIjESaISt4pairIKjjEEE4findERS3_.exit: ; preds = %entry, %_ZNKSt8_Rb_treeIjSt4pairIKjjESt10_Select1stIS2_ESt4lessIjESaIS2_EE14_M_lower_boundEPKSt13_Rb_tree_nodeIS2_EPKSt18_Rb_tree_node_baseRS1_.exit.i.i, %lor.lhs.false.i.i
  %retval.sroa.0.0.i.i = phi ptr [ %add.ptr.i.i.i, %_ZNKSt8_Rb_treeIjSt4pairIKjjESt10_Select1stIS2_ESt4lessIjESaIS2_EE14_M_lower_boundEPKSt13_Rb_tree_nodeIS2_EPKSt18_Rb_tree_node_baseRS1_.exit.i.i ], [ %add.ptr.i.i.i, %entry ], [ %spec.select.i.i, %lor.lhs.false.i.i ]
  %second = getelementptr inbounds i8, ptr %retval.sroa.0.0.i.i, i64 36
  %3 = load i32, ptr %second, align 4
  ret i32 %3
}